; Function Attrs: mustprogress uwtable
define hidden void @_ZN4ncnn9ParamDict5clearEv(ptr noundef nonnull readonly align 8 captures(none) dereferenceable(16) %0) local_unnamed_addr #1 align 2 personality ptr @__gxx_personality_v0 {
  %2 = getelementptr inbounds nuw i8, ptr %0, i64 8
  br label %4

3:                                                ; preds = %_ZN4ncnn3MatD2Ev.exit
  ret void

4:                                                ; preds = %1, %_ZN4ncnn3MatD2Ev.exit
  %indvars.iv = phi i64 [ 0, %1 ], [ %indvars.iv.next, %_ZN4ncnn3MatD2Ev.exit ]
  %5 = load ptr, ptr %2, align 8, !tbaa !21
  %6 = getelementptr inbounds nuw [32 x %struct.anon], ptr %5, i64 0, i64 %indvars.iv
  store i32 0, ptr %6, align 8, !tbaa !24
  %7 = getelementptr inbounds nuw [32 x %struct.anon], ptr %5, i64 0, i64 %indvars.iv, i32 1
  store i32 0, ptr %7, align 4, !tbaa !20
  %8 = load ptr, ptr %2, align 8, !tbaa !21
  %9 = getelementptr inbounds nuw [32 x %struct.anon], ptr %8, i64 0, i64 %indvars.iv, i32 2
  %10 = getelementptr inbounds nuw i8, ptr %9, i64 8
  %11 = load ptr, ptr %10, align 8, !tbaa !26
  %.not.i.i = icmp eq ptr %11, null
  br i1 %.not.i.i, label %_ZN4ncnn3MatD2Ev.exit, label %12

12:                                               ; preds = %4
  %13 = atomicrmw add ptr %11, i32 -1 acq_rel, align 4
  %14 = icmp eq i32 %13, 1
  br i1 %14, label %15, label %_ZN4ncnn3MatD2Ev.exit

15:                                               ; preds = %12
  %16 = getelementptr inbounds nuw i8, ptr %9, i64 32
  %17 = load ptr, ptr %16, align 8, !tbaa !27
  %.not3.i.i = icmp eq ptr %17, null
  %18 = load ptr, ptr %9, align 8, !tbaa !28
  br i1 %.not3.i.i, label %23, label %19

19:                                               ; preds = %15
  %20 = load ptr, ptr %17, align 8, !tbaa !4
  %21 = getelementptr inbounds nuw i8, ptr %20, i64 24
  %22 = load ptr, ptr %21, align 8
  tail call void %22(ptr noundef nonnull align 8 dereferenceable(8) %17, ptr noundef %18)
  br label %_ZN4ncnn3MatD2Ev.exit

23:                                               ; preds = %15
  %.not.i18.i = icmp eq ptr %18, null
  br i1 %.not.i18.i, label %_ZN4ncnn3MatD2Ev.exit, label %24

24:                                               ; preds = %23
  tail call void @free(ptr noundef nonnull %18) #22
  br label %_ZN4ncnn3MatD2Ev.exit

_ZN4ncnn3MatD2Ev.exit:                            ; preds = %19, %23, %24, %12, %4
  %25 = getelementptr inbounds nuw i8, ptr %9, i64 64
  %26 = getelementptr inbounds nuw i8, ptr %9, i64 32
  store i64 0, ptr %25, align 8, !tbaa !7
  tail call void @llvm.memset.p0.i64(ptr noundef nonnull align 8 dereferenceable(28) %9, i8 0, i64 28, i1 false)
  tail call void @llvm.memset.p0.i64(ptr noundef nonnull align 8 dereferenceable(28) %26, i8 0, i64 28, i1 false)
  %.pre = load ptr, ptr %2, align 8, !tbaa !21
  %.phi.trans.insert = getelementptr inbounds nuw [32 x %struct.anon], ptr %.pre, i64 0, i64 %indvars.iv, i32 3
  %.pre53 = load ptr, ptr %.phi.trans.insert, align 8, !tbaa !29
  %27 = getelementptr inbounds nuw [32 x %struct.anon], ptr %.pre, i64 0, i64 %indvars.iv, i32 3, i32 1
  store i64 0, ptr %27, align 8, !tbaa !18
  store i8 0, ptr %.pre53, align 1, !tbaa !20
  %indvars.iv.next = add nuw nsw i64 %indvars.iv, 1
  %exitcond.not = icmp eq i64 %indvars.iv.next, 32
  br i1 %exitcond.not, label %3, label %4, !llvm.loop !30
}